; Function Attrs: nofree nosync nounwind memory(readwrite, inaccessiblemem: none) uwtable
define void @Acec_TreeMarkTFI_rec(ptr noundef readonly captures(none) %0, i32 noundef %1, ptr noundef readonly captures(none) %2) local_unnamed_addr #4 {
  %4 = getelementptr i8, ptr %0, i64 32
  %5 = getelementptr i8, ptr %2, i64 8
  %.val1623 = load ptr, ptr %5, align 8
  %6 = ashr i32 %1, 5
  %7 = sext i32 %6 to i64
  %8 = getelementptr inbounds i32, ptr %.val1623, i64 %7
  %9 = load i32, ptr %8, align 4
  %10 = and i32 %1, 31
  %11 = shl nuw i32 1, %10
  %12 = and i32 %9, %11
  %.not24 = icmp eq i32 %12, 0
  br i1 %.not24, label %.lr.ph.preheader, label %._crit_edge

.lr.ph.preheader:                                 ; preds = %3
  %.val22 = load ptr, ptr %4, align 8
  %13 = sext i32 %1 to i64
  %14 = getelementptr inbounds %struct.Gia_Obj_t_, ptr %.val22, i64 %13
  br label %.lr.ph

.lr.ph:                                           ; preds = %.lr.ph.preheader, %tailrecurse
  %15 = phi i32 [ %37, %tailrecurse ], [ %10, %.lr.ph.preheader ]
  %16 = phi i32 [ %36, %tailrecurse ], [ %9, %.lr.ph.preheader ]
  %17 = phi ptr [ %35, %tailrecurse ], [ %8, %.lr.ph.preheader ]
  %18 = phi ptr [ %32, %tailrecurse ], [ %14, %.lr.ph.preheader ]
  %.tr2025 = phi i32 [ %30, %tailrecurse ], [ %1, %.lr.ph.preheader ]
  %19 = shl nuw i32 1, %15
  %20 = or i32 %16, %19
  store i32 %20, ptr %17, align 4
  %.val15 = load i64, ptr %18, align 4
  %21 = and i64 %.val15, 2147483648
  %.not.i = icmp ne i64 %21, 0
  %22 = and i64 %.val15, 536870911
  %23 = icmp eq i64 %22, 536870911
  %narrow.i.not = or i1 %.not.i, %23
  br i1 %narrow.i.not, label %._crit_edge, label %tailrecurse

tailrecurse:                                      ; preds = %.lr.ph
  %24 = trunc i64 %.val15 to i32
  %25 = and i32 %24, 536870911
  %26 = sub nsw i32 %.tr2025, %25
  tail call void @Acec_TreeMarkTFI_rec(ptr noundef nonnull %0, i32 noundef %26, ptr noundef nonnull %2)
  %.val18 = load i64, ptr %18, align 4
  %27 = lshr i64 %.val18, 32
  %28 = trunc nuw i64 %27 to i32
  %29 = and i32 %28, 536870911
  %30 = sub nsw i32 %.tr2025, %29
  %.val = load ptr, ptr %4, align 8
  %31 = sext i32 %30 to i64
  %32 = getelementptr inbounds %struct.Gia_Obj_t_, ptr %.val, i64 %31
  %.val16 = load ptr, ptr %5, align 8
  %33 = ashr i32 %30, 5
  %34 = sext i32 %33 to i64
  %35 = getelementptr inbounds i32, ptr %.val16, i64 %34
  %36 = load i32, ptr %35, align 4
  %37 = and i32 %30, 31
  %38 = shl nuw i32 1, %37
  %39 = and i32 %36, %38
  %.not = icmp eq i32 %39, 0
  br i1 %.not, label %.lr.ph, label %._crit_edge

._crit_edge:                                      ; preds = %tailrecurse, %.lr.ph, %3
  ret void
}